target datalayout = "e-m:e-p270:32:32-p271:32:32-p272:64:64-i64:64-i128:128-f80:128-n8:16:32:64-S128"
target triple = "x86_64-pc-linux-gnu"

%struct.strbuf = type { i64, i64, ptr }
%struct.hashmap = type { ptr, ptr, ptr, i32, i32, i32, i32, i8 }
%struct.pattern_list = type { i32, i32, ptr, ptr, i32, i32, %struct.hashmap, %struct.hashmap }
%struct.pattern_entry = type { %struct.hashmap_entry, ptr, i64 }
%struct.hashmap_entry = type { ptr, i32 }

; Function Attrs: inlinehint nounwind uwtable
define internal ptr @container_of_or_null_offset(ptr noundef %0, i64 noundef %1) #4 {
  %3 = alloca ptr, align 8
  %4 = alloca i64, align 8
  store ptr %0, ptr %3, align 8, !tbaa !15
  store i64 %1, ptr %4, align 8, !tbaa !91
  %5 = load ptr, ptr %3, align 8, !tbaa !15
  %6 = icmp ne ptr %5, null
  br i1 %6, label %7, label %12

7:                                                ; preds = %2
  %8 = load ptr, ptr %3, align 8, !tbaa !15
  %9 = load i64, ptr %4, align 8, !tbaa !91
  %10 = sub i64 0, %9
  %11 = getelementptr inbounds i8, ptr %8, i64 %10
  br label %13

12:                                               ; preds = %2
  br label %13

13:                                               ; preds = %12, %7
  %14 = phi ptr [ %11, %7 ], [ null, %12 ]
  ret ptr %14
}

; Function Attrs: inlinehint nounwind uwtable
define internal void @hashmap_entry_init(ptr noundef %0, i32 noundef %1) #4 {
  %3 = alloca ptr, align 8
  %4 = alloca i32, align 4
  store ptr %0, ptr %3, align 8, !tbaa !177
  store i32 %1, ptr %4, align 4, !tbaa !4
  %5 = load i32, ptr %4, align 4, !tbaa !4
  %6 = load ptr, ptr %3, align 8, !tbaa !177
  %7 = getelementptr inbounds nuw %struct.hashmap_entry, ptr %6, i32 0, i32 1
  store i32 %5, ptr %7, align 8, !tbaa !178
  %8 = load ptr, ptr %3, align 8, !tbaa !177
  %9 = getelementptr inbounds nuw %struct.hashmap_entry, ptr %8, i32 0, i32 0
  store ptr null, ptr %9, align 8, !tbaa !179
  ret void
}

; Function Attrs: nounwind uwtable
define internal void @insert_recursive_pattern(ptr noundef %0, ptr noundef %1) #0 {
  %3 = alloca ptr, align 8
  %4 = alloca ptr, align 8
  %5 = alloca ptr, align 8
  %6 = alloca ptr, align 8
  %7 = alloca ptr, align 8
  %8 = alloca i64, align 8
  %9 = alloca ptr, align 8
  %10 = alloca i32, align 4
  store ptr %0, ptr %3, align 8, !tbaa !96
  store ptr %1, ptr %4, align 8, !tbaa !152
  call void @llvm.lifetime.start.p0(i64 8, ptr %5) #9
  %11 = call ptr @xmalloc(i64 noundef 32)
  store ptr %11, ptr %5, align 8, !tbaa !51
  %12 = load ptr, ptr %4, align 8, !tbaa !152
  %13 = getelementptr inbounds nuw %struct.strbuf, ptr %12, i32 0, i32 1
  %14 = load i64, ptr %13, align 8, !tbaa !134
  %15 = load ptr, ptr %5, align 8, !tbaa !51
  %16 = getelementptr inbounds nuw %struct.pattern_entry, ptr %15, i32 0, i32 2
  store i64 %14, ptr %16, align 8, !tbaa !175
  %17 = load ptr, ptr %4, align 8, !tbaa !152
  %18 = call ptr @strbuf_detach(ptr noundef %17, ptr noundef null)
  %19 = load ptr, ptr %5, align 8, !tbaa !51
  %20 = getelementptr inbounds nuw %struct.pattern_entry, ptr %19, i32 0, i32 1
  store ptr %18, ptr %20, align 8, !tbaa !53
  %21 = load ptr, ptr %5, align 8, !tbaa !51
  %22 = getelementptr inbounds nuw %struct.pattern_entry, ptr %21, i32 0, i32 0
  %23 = load ptr, ptr %5, align 8, !tbaa !51
  %24 = getelementptr inbounds nuw %struct.pattern_entry, ptr %23, i32 0, i32 1
  %25 = load ptr, ptr %24, align 8, !tbaa !53
  %26 = call i32 @fspathhash(ptr noundef %25)
  call void @hashmap_entry_init(ptr noundef %22, i32 noundef %26)
  %27 = load ptr, ptr %3, align 8, !tbaa !96
  %28 = getelementptr inbounds nuw %struct.pattern_list, ptr %27, i32 0, i32 6
  %29 = load ptr, ptr %5, align 8, !tbaa !51
  %30 = getelementptr inbounds nuw %struct.pattern_entry, ptr %29, i32 0, i32 0
  call void @hashmap_add(ptr noundef %28, ptr noundef %30)
  br label %31

31:                                               ; preds = %98, %2
  %32 = load ptr, ptr %5, align 8, !tbaa !51
  %33 = getelementptr inbounds nuw %struct.pattern_entry, ptr %32, i32 0, i32 2
  %34 = load i64, ptr %33, align 8, !tbaa !175
  %35 = icmp ne i64 %34, 0
  br i1 %35, label %36, label %99

36:                                               ; preds = %31
  call void @llvm.lifetime.start.p0(i64 8, ptr %6) #9
  %37 = load ptr, ptr %5, align 8, !tbaa !51
  %38 = getelementptr inbounds nuw %struct.pattern_entry, ptr %37, i32 0, i32 1
  %39 = load ptr, ptr %38, align 8, !tbaa !53
  %40 = call ptr @strrchr(ptr noundef %39, i32 noundef 47) #11
  store ptr %40, ptr %6, align 8, !tbaa !11
  call void @llvm.lifetime.start.p0(i64 8, ptr %7) #9
  %41 = load ptr, ptr %5, align 8, !tbaa !51
  %42 = getelementptr inbounds nuw %struct.pattern_entry, ptr %41, i32 0, i32 1
  %43 = load ptr, ptr %42, align 8, !tbaa !53
  store ptr %43, ptr %7, align 8, !tbaa !11
  call void @llvm.lifetime.start.p0(i64 8, ptr %8) #9
  call void @llvm.lifetime.start.p0(i64 8, ptr %9) #9
  %44 = load ptr, ptr %6, align 8, !tbaa !11
  %45 = icmp ne ptr %44, null
  br i1 %45, label %46, label %52

46:                                               ; preds = %36
  %47 = load ptr, ptr %6, align 8, !tbaa !11
  %48 = load ptr, ptr %5, align 8, !tbaa !51
  %49 = getelementptr inbounds nuw %struct.pattern_entry, ptr %48, i32 0, i32 1
  %50 = load ptr, ptr %49, align 8, !tbaa !53
  %51 = icmp eq ptr %47, %50
  br i1 %51, label %52, label %53

52:                                               ; preds = %46, %36
  store i32 3, ptr %10, align 4
  br label %96

53:                                               ; preds = %46
  %54 = load ptr, ptr %6, align 8, !tbaa !11
  %55 = load ptr, ptr %5, align 8, !tbaa !51
  %56 = getelementptr inbounds nuw %struct.pattern_entry, ptr %55, i32 0, i32 1
  %57 = load ptr, ptr %56, align 8, !tbaa !53
  %58 = ptrtoint ptr %54 to i64
  %59 = ptrtoint ptr %57 to i64
  %60 = sub i64 %58, %59
  store i64 %60, ptr %8, align 8, !tbaa !91
  %61 = call ptr @xmalloc(i64 noundef 32)
  store ptr %61, ptr %5, align 8, !tbaa !51
  %62 = load i64, ptr %8, align 8, !tbaa !91
  %63 = load ptr, ptr %5, align 8, !tbaa !51
  %64 = getelementptr inbounds nuw %struct.pattern_entry, ptr %63, i32 0, i32 2
  store i64 %62, ptr %64, align 8, !tbaa !175
  %65 = load ptr, ptr %7, align 8, !tbaa !11
  %66 = load i64, ptr %8, align 8, !tbaa !91
  %67 = call ptr @xstrndup(ptr noundef %65, i64 noundef %66)
  %68 = load ptr, ptr %5, align 8, !tbaa !51
  %69 = getelementptr inbounds nuw %struct.pattern_entry, ptr %68, i32 0, i32 1
  store ptr %67, ptr %69, align 8, !tbaa !53
  %70 = load ptr, ptr %5, align 8, !tbaa !51
  %71 = getelementptr inbounds nuw %struct.pattern_entry, ptr %70, i32 0, i32 0
  %72 = load ptr, ptr %5, align 8, !tbaa !51
  %73 = getelementptr inbounds nuw %struct.pattern_entry, ptr %72, i32 0, i32 1
  %74 = load ptr, ptr %73, align 8, !tbaa !53
  %75 = call i32 @fspathhash(ptr noundef %74)
  call void @hashmap_entry_init(ptr noundef %71, i32 noundef %75)
  %76 = load ptr, ptr %3, align 8, !tbaa !96
  %77 = getelementptr inbounds nuw %struct.pattern_list, ptr %76, i32 0, i32 7
  %78 = load ptr, ptr %5, align 8, !tbaa !51
  %79 = getelementptr inbounds nuw %struct.pattern_entry, ptr %78, i32 0, i32 0
  %80 = call ptr @hashmap_get(ptr noundef %77, ptr noundef %79, ptr noundef null)
  %81 = call ptr @container_of_or_null_offset(ptr noundef %80, i64 noundef 0)
  store ptr %81, ptr %9, align 8, !tbaa !51
  %82 = load ptr, ptr %9, align 8, !tbaa !51
  %83 = icmp ne ptr %82, null
  br i1 %83, label %89, label %84

84:                                               ; preds = %53
  %85 = load ptr, ptr %3, align 8, !tbaa !96
  %86 = getelementptr inbounds nuw %struct.pattern_list, ptr %85, i32 0, i32 7
  %87 = load ptr, ptr %5, align 8, !tbaa !51
  %88 = getelementptr inbounds nuw %struct.pattern_entry, ptr %87, i32 0, i32 0
  call void @hashmap_add(ptr noundef %86, ptr noundef %88)
  br label %95

89:                                               ; preds = %53
  %90 = load ptr, ptr %5, align 8, !tbaa !51
  %91 = getelementptr inbounds nuw %struct.pattern_entry, ptr %90, i32 0, i32 1
  %92 = load ptr, ptr %91, align 8, !tbaa !53
  call void @free(ptr noundef %92) #9
  %93 = load ptr, ptr %5, align 8, !tbaa !51
  call void @free(ptr noundef %93) #9
  %94 = load ptr, ptr %9, align 8, !tbaa !51
  store ptr %94, ptr %5, align 8, !tbaa !51
  br label %95

95:                                               ; preds = %89, %84
  store i32 0, ptr %10, align 4
  br label %96

96:                                               ; preds = %95, %52
  call void @llvm.lifetime.end.p0(i64 8, ptr %9) #9
  call void @llvm.lifetime.end.p0(i64 8, ptr %8) #9
  call void @llvm.lifetime.end.p0(i64 8, ptr %7) #9
  call void @llvm.lifetime.end.p0(i64 8, ptr %6) #9
  %97 = load i32, ptr %10, align 4
  switch i32 %97, label %100 [
    i32 0, label %98
    i32 3, label %99
  ]

98:                                               ; preds = %96
  br label %31, !llvm.loop !176

99:                                               ; preds = %96, %31
  call void @llvm.lifetime.end.p0(i64 8, ptr %5) #9
  ret void

100:                                              ; preds = %96
  unreachable
}