; Function Attrs: nounwind uwtable
define internal fastcc void @insert_recursive_pattern(ptr noundef %0, ptr noundef nonnull %1) unnamed_addr #0 {
  %3 = tail call ptr @xmalloc(i64 noundef 32) #13
  %4 = getelementptr inbounds nuw i8, ptr %1, i64 8
  %5 = load i64, ptr %4, align 8, !tbaa !100
  %6 = getelementptr inbounds nuw i8, ptr %3, i64 24
  store i64 %5, ptr %6, align 8, !tbaa !149
  %7 = tail call ptr @strbuf_detach(ptr noundef nonnull %1, ptr noundef null) #13
  %8 = getelementptr inbounds nuw i8, ptr %3, i64 16
  store ptr %7, ptr %8, align 8, !tbaa !41
  %9 = tail call i32 @fspathhash(ptr noundef %7) #13
  %10 = getelementptr inbounds nuw i8, ptr %3, i64 8
  store i32 %9, ptr %10, align 8, !tbaa !150
  store ptr null, ptr %3, align 8, !tbaa !151
  %11 = getelementptr inbounds nuw i8, ptr %0, i64 32
  tail call void @hashmap_add(ptr noundef nonnull %11, ptr noundef nonnull %3) #13
  %12 = load i64, ptr %6, align 8, !tbaa !149
  %.not40 = icmp eq i64 %12, 0
  br i1 %.not40, label %.thread, label %.lr.ph

.lr.ph:                                           ; preds = %2
  %13 = getelementptr inbounds nuw i8, ptr %0, i64 80
  br label %14

14:                                               ; preds = %.lr.ph, %33
  %.03141 = phi ptr [ %3, %.lr.ph ], [ %.1, %33 ]
  %15 = getelementptr inbounds nuw i8, ptr %.03141, i64 16
  %16 = load ptr, ptr %15, align 8, !tbaa !41
  %17 = tail call ptr @strrchr(ptr noundef nonnull dereferenceable(1) %16, i32 noundef 47) #15
  %.not35 = icmp eq ptr %17, null
  %18 = icmp eq ptr %17, %16
  %or.cond = or i1 %.not35, %18
  br i1 %or.cond, label %.thread, label %19

19:                                               ; preds = %14
  %20 = ptrtoint ptr %17 to i64
  %21 = ptrtoint ptr %16 to i64
  %22 = sub i64 %20, %21
  %23 = tail call ptr @xmalloc(i64 noundef 32) #13
  %24 = getelementptr inbounds nuw i8, ptr %23, i64 24
  store i64 %22, ptr %24, align 8, !tbaa !149
  %25 = tail call ptr @xstrndup(ptr noundef nonnull %16, i64 noundef %22) #13
  %26 = getelementptr inbounds nuw i8, ptr %23, i64 16
  store ptr %25, ptr %26, align 8, !tbaa !41
  %27 = tail call i32 @fspathhash(ptr noundef %25) #13
  %28 = getelementptr inbounds nuw i8, ptr %23, i64 8
  store i32 %27, ptr %28, align 8, !tbaa !150
  store ptr null, ptr %23, align 8, !tbaa !151
  %29 = tail call ptr @hashmap_get(ptr noundef nonnull %13, ptr noundef nonnull %23, ptr noundef null) #13
  %.not36 = icmp eq ptr %29, null
  br i1 %.not36, label %30, label %31

30:                                               ; preds = %19
  tail call void @hashmap_add(ptr noundef nonnull %13, ptr noundef nonnull %23) #13
  br label %33

31:                                               ; preds = %19
  %32 = load ptr, ptr %26, align 8, !tbaa !41
  tail call void @free(ptr noundef %32) #13
  tail call void @free(ptr noundef nonnull %23) #13
  br label %33

33:                                               ; preds = %30, %31
  %.1 = phi ptr [ %29, %31 ], [ %23, %30 ]
  %34 = getelementptr inbounds nuw i8, ptr %.1, i64 24
  %35 = load i64, ptr %34, align 8, !tbaa !149
  %.not = icmp eq i64 %35, 0
  br i1 %.not, label %.thread, label %14

.thread:                                          ; preds = %33, %14, %2
  ret void
}